target datalayout = "e-m:e-p270:32:32-p271:32:32-p272:64:64-i64:64-i128:128-f80:128-n8:16:32:64-S128"
target triple = "x86_64-pc-linux-gnu"

%struct._zend_executor_globals = type { %struct._zval_struct, %struct._zval_struct, [32 x ptr], ptr, ptr, %struct._zend_array, %struct._zend_array, ptr, i32, i8, %struct._zval_struct, i32, ptr, ptr, ptr, ptr, ptr, ptr, i64, ptr, ptr, i32, ptr, i32, i64, i32, i32, i32, i8, i8, %struct.zend_atomic_bool_s, %struct.zend_atomic_bool_s, ptr, i64, ptr, ptr, %struct._zend_array, %struct._zend_array, i32, i8, %struct._zval_struct, %struct._zval_struct, %struct._zend_stack, %struct._zend_stack, %struct._zend_stack, ptr, i32, i32, i64, ptr, ptr, ptr, %struct._zend_objects_store, %struct._zend_lazy_objects_store, ptr, ptr, ptr, [3 x %struct._zend_op], ptr, i8, i8, i64, i32, i32, ptr, [16 x %struct._HashTableIterator], ptr, %union._zend_function, %struct._zend_op, %struct._zend_array, i64, %struct.zend_get_gc_buffer, ptr, ptr, ptr, i64, i8, i32, ptr, ptr, i64, %struct._zend_call_stack, i64, i64, %struct._zend_strtod_state, [6 x ptr] }
%struct.zend_atomic_bool_s = type { i8 }
%struct._zval_struct = type { %union._zend_value, %union.anon, %union.anon.2 }
%union._zend_value = type { i64 }
%union.anon = type { i32 }
%union.anon.2 = type { i32 }
%struct._zend_stack = type { i32, i32, i32, ptr }
%struct._zend_objects_store = type { ptr, i32, i32, i32 }
%struct._zend_lazy_objects_store = type { %struct._zend_array }
%struct._HashTableIterator = type { ptr, i32, i32 }
%union._zend_function = type { %struct._zend_op_array }
%struct._zend_op_array = type { i8, [3 x i8], i32, ptr, ptr, ptr, i32, i32, ptr, ptr, ptr, ptr, i32, ptr, i32, i32, i32, ptr, ptr, ptr, ptr, ptr, i32, i32, ptr, ptr, ptr, i32, i32, i32, i32, ptr, ptr, [6 x ptr] }
%struct._zend_op = type { ptr, %union._znode_op, %union._znode_op, %union._znode_op, i32, i32, i8, i8, i8, i8 }
%union._znode_op = type { i32 }
%struct._zend_array = type { %struct._zend_refcounted_h, %union.anon.4, i32, %union.anon.6, i32, i32, i32, i32, i64, ptr }
%struct._zend_refcounted_h = type { i32, %union.anon.3 }
%union.anon.3 = type { i32 }
%union.anon.4 = type { i32 }
%union.anon.6 = type { ptr }
%struct.zend_get_gc_buffer = type { ptr, ptr, ptr }
%struct._zend_call_stack = type { ptr, i64 }
%struct._zend_strtod_state = type { [8 x ptr], ptr, ptr }
%struct._zend_execute_data = type { ptr, ptr, ptr, ptr, %struct._zval_struct, ptr, ptr, ptr, ptr }
%struct._spl_dllist_object = type { ptr, ptr, i32, i32, ptr, ptr, ptr, ptr, ptr, ptr, %struct._zend_object }
%struct._zend_object = type { %struct._zend_refcounted_h, i32, i32, ptr, ptr, ptr, [1 x %struct._zval_struct] }
%struct._spl_ptr_llist = type { ptr, ptr, i32 }
%struct._spl_ptr_llist_element = type { ptr, ptr, %struct._zval_struct }
%struct.anon.0 = type { i8, i8, %union.anon.1 }
%union.anon.1 = type { i16 }

@executor_globals = external global %struct._zend_executor_globals, align 8
@spl_ce_RuntimeException = external global ptr, align 8
@.str.1 = private unnamed_addr constant [38 x i8] c"Can't pop from an empty datastructure\00", align 1

; Function Attrs: alwaysinline nounwind uwtable
define internal zeroext i8 @zval_get_type(ptr noundef %0) #6 {
  %2 = alloca ptr, align 8
  store ptr %0, ptr %2, align 8, !tbaa !9
  %3 = load ptr, ptr %2, align 8, !tbaa !9
  %4 = getelementptr inbounds nuw %struct._zval_struct, ptr %3, i32 0, i32 1
  %5 = getelementptr inbounds nuw %struct.anon.0, ptr %4, i32 0, i32 0
  %6 = load i8, ptr %5, align 8, !tbaa !11
  ret i8 %6
}

; Function Attrs: nounwind uwtable
define internal void @spl_ptr_llist_pop(ptr noundef %0, ptr noundef %1) #0 {
  %3 = alloca ptr, align 8
  %4 = alloca ptr, align 8
  %5 = alloca ptr, align 8
  %6 = alloca i32, align 4
  %7 = alloca ptr, align 8
  %8 = alloca ptr, align 8
  %9 = alloca ptr, align 8
  %10 = alloca i32, align 4
  store ptr %0, ptr %3, align 8, !tbaa !55
  store ptr %1, ptr %4, align 8, !tbaa !9
  call void @llvm.lifetime.start.p0(i64 8, ptr %5) #14
  %11 = load ptr, ptr %3, align 8, !tbaa !55
  %12 = getelementptr inbounds nuw %struct._spl_ptr_llist, ptr %11, i32 0, i32 1
  %13 = load ptr, ptr %12, align 8, !tbaa !57
  store ptr %13, ptr %5, align 8, !tbaa !56
  %14 = load ptr, ptr %5, align 8, !tbaa !56
  %15 = icmp eq ptr %14, null
  br i1 %15, label %16, label %22

16:                                               ; preds = %2
  br label %17

17:                                               ; preds = %16
  %18 = load ptr, ptr %4, align 8, !tbaa !9
  %19 = getelementptr inbounds nuw %struct._zval_struct, ptr %18, i32 0, i32 1
  store i32 0, ptr %19, align 8, !tbaa !11
  br label %20

20:                                               ; preds = %17
  br label %21

21:                                               ; preds = %20
  store i32 1, ptr %6, align 4
  br label %83

22:                                               ; preds = %2
  %23 = load ptr, ptr %5, align 8, !tbaa !56
  %24 = getelementptr inbounds nuw %struct._spl_ptr_llist_element, ptr %23, i32 0, i32 0
  %25 = load ptr, ptr %24, align 8, !tbaa !59
  %26 = icmp ne ptr %25, null
  br i1 %26, label %27, label %32

27:                                               ; preds = %22
  %28 = load ptr, ptr %5, align 8, !tbaa !56
  %29 = getelementptr inbounds nuw %struct._spl_ptr_llist_element, ptr %28, i32 0, i32 0
  %30 = load ptr, ptr %29, align 8, !tbaa !59
  %31 = getelementptr inbounds nuw %struct._spl_ptr_llist_element, ptr %30, i32 0, i32 1
  store ptr null, ptr %31, align 8, !tbaa !61
  br label %35

32:                                               ; preds = %22
  %33 = load ptr, ptr %3, align 8, !tbaa !55
  %34 = getelementptr inbounds nuw %struct._spl_ptr_llist, ptr %33, i32 0, i32 0
  store ptr null, ptr %34, align 8, !tbaa !65
  br label %35

35:                                               ; preds = %32, %27
  %36 = load ptr, ptr %5, align 8, !tbaa !56
  %37 = getelementptr inbounds nuw %struct._spl_ptr_llist_element, ptr %36, i32 0, i32 0
  %38 = load ptr, ptr %37, align 8, !tbaa !59
  %39 = load ptr, ptr %3, align 8, !tbaa !55
  %40 = getelementptr inbounds nuw %struct._spl_ptr_llist, ptr %39, i32 0, i32 1
  store ptr %38, ptr %40, align 8, !tbaa !57
  %41 = load ptr, ptr %3, align 8, !tbaa !55
  %42 = getelementptr inbounds nuw %struct._spl_ptr_llist, ptr %41, i32 0, i32 2
  %43 = load i32, ptr %42, align 8, !tbaa !66
  %44 = add nsw i32 %43, -1
  store i32 %44, ptr %42, align 8, !tbaa !66
  br label %45

45:                                               ; preds = %35
  call void @llvm.lifetime.start.p0(i64 8, ptr %7) #14
  %46 = load ptr, ptr %4, align 8, !tbaa !9
  store ptr %46, ptr %7, align 8, !tbaa !9
  call void @llvm.lifetime.start.p0(i64 8, ptr %8) #14
  %47 = load ptr, ptr %5, align 8, !tbaa !56
  %48 = getelementptr inbounds nuw %struct._spl_ptr_llist_element, ptr %47, i32 0, i32 2
  store ptr %48, ptr %8, align 8, !tbaa !9
  call void @llvm.lifetime.start.p0(i64 8, ptr %9) #14
  %49 = load ptr, ptr %8, align 8, !tbaa !9
  %50 = getelementptr inbounds nuw %struct._zval_struct, ptr %49, i32 0, i32 0
  %51 = load ptr, ptr %50, align 8, !tbaa !11
  store ptr %51, ptr %9, align 8, !tbaa !62
  call void @llvm.lifetime.start.p0(i64 4, ptr %10) #14
  %52 = load ptr, ptr %8, align 8, !tbaa !9
  %53 = getelementptr inbounds nuw %struct._zval_struct, ptr %52, i32 0, i32 1
  %54 = load i32, ptr %53, align 8, !tbaa !11
  store i32 %54, ptr %10, align 4, !tbaa !64
  br label %55

55:                                               ; preds = %45
  %56 = load ptr, ptr %9, align 8, !tbaa !62
  %57 = load ptr, ptr %7, align 8, !tbaa !9
  %58 = getelementptr inbounds nuw %struct._zval_struct, ptr %57, i32 0, i32 0
  store ptr %56, ptr %58, align 8, !tbaa !11
  %59 = load i32, ptr %10, align 4, !tbaa !64
  %60 = load ptr, ptr %7, align 8, !tbaa !9
  %61 = getelementptr inbounds nuw %struct._zval_struct, ptr %60, i32 0, i32 1
  store i32 %59, ptr %61, align 8, !tbaa !11
  br label %62

62:                                               ; preds = %55
  br label %63

63:                                               ; preds = %62
  call void @llvm.lifetime.end.p0(i64 4, ptr %10) #14
  call void @llvm.lifetime.end.p0(i64 8, ptr %9) #14
  call void @llvm.lifetime.end.p0(i64 8, ptr %8) #14
  call void @llvm.lifetime.end.p0(i64 8, ptr %7) #14
  br label %64

64:                                               ; preds = %63
  br label %65

65:                                               ; preds = %64
  br label %66

66:                                               ; preds = %65
  %67 = load ptr, ptr %5, align 8, !tbaa !56
  %68 = getelementptr inbounds nuw %struct._spl_ptr_llist_element, ptr %67, i32 0, i32 2
  %69 = getelementptr inbounds nuw %struct._zval_struct, ptr %68, i32 0, i32 1
  store i32 0, ptr %69, align 8, !tbaa !11
  br label %70

70:                                               ; preds = %66
  br label %71

71:                                               ; preds = %70
  %72 = load ptr, ptr %5, align 8, !tbaa !56
  %73 = getelementptr inbounds nuw %struct._spl_ptr_llist_element, ptr %72, i32 0, i32 0
  store ptr null, ptr %73, align 8, !tbaa !59
  %74 = load ptr, ptr %5, align 8, !tbaa !56
  %75 = getelementptr inbounds nuw %struct._spl_ptr_llist_element, ptr %74, i32 0, i32 2
  %76 = getelementptr inbounds nuw %struct._zval_struct, ptr %75, i32 0, i32 2
  %77 = load i32, ptr %76, align 4, !tbaa !11
  %78 = add i32 %77, -1
  store i32 %78, ptr %76, align 4, !tbaa !11
  %79 = icmp ne i32 %78, 0
  br i1 %79, label %82, label %80

80:                                               ; preds = %71
  %81 = load ptr, ptr %5, align 8, !tbaa !56
  call void @_efree(ptr noundef %81)
  br label %82

82:                                               ; preds = %80, %71
  store i32 0, ptr %6, align 4
  br label %83

83:                                               ; preds = %82, %21
  call void @llvm.lifetime.end.p0(i64 8, ptr %5) #14
  %84 = load i32, ptr %6, align 4
  switch i32 %84, label %86 [
    i32 0, label %85
    i32 1, label %85
  ]

85:                                               ; preds = %83, %83
  ret void

86:                                               ; preds = %83
  unreachable
}

; Function Attrs: inlinehint nounwind uwtable
define internal ptr @spl_dllist_from_obj(ptr noundef %0) #4 {
  %2 = alloca ptr, align 8
  store ptr %0, ptr %2, align 8, !tbaa !54
  %3 = load ptr, ptr %2, align 8, !tbaa !54
  %4 = getelementptr inbounds i8, ptr %3, i64 -72
  ret ptr %4
}

; Function Attrs: nounwind uwtable
define hidden void @zim_SplDoublyLinkedList_pop(ptr noundef %0, ptr noundef %1) #0 {
  %3 = alloca ptr, align 8
  %4 = alloca ptr, align 8
  %5 = alloca ptr, align 8
  %6 = alloca i32, align 4
  store ptr %0, ptr %3, align 8, !tbaa !4
  store ptr %1, ptr %4, align 8, !tbaa !9
  call void @llvm.lifetime.start.p0(i64 8, ptr %5) #14
  %7 = load ptr, ptr %3, align 8, !tbaa !4
  %8 = getelementptr inbounds nuw %struct._zend_execute_data, ptr %7, i32 0, i32 4
  %9 = getelementptr inbounds nuw %struct._zval_struct, ptr %8, i32 0, i32 2
  %10 = load i32, ptr %9, align 4, !tbaa !11
  %11 = icmp eq i32 %10, 0
  %12 = xor i1 %11, true
  %13 = xor i1 %12, true
  %14 = zext i1 %13 to i32
  %15 = sext i32 %14 to i64
  %16 = call i64 @llvm.expect.i64(i64 %15, i64 1)
  %17 = icmp ne i64 %16, 0
  br i1 %17, label %18, label %19

18:                                               ; preds = %2
  br label %20

19:                                               ; preds = %2
  call void @zend_wrong_parameters_none_error()
  br label %20

20:                                               ; preds = %19, %18
  %21 = phi i32 [ 0, %18 ], [ -1, %19 ]
  %22 = icmp eq i32 %21, -1
  br i1 %22, label %23, label %29

23:                                               ; preds = %20
  br label %24

24:                                               ; preds = %23
  %25 = load ptr, ptr getelementptr inbounds nuw (%struct._zend_executor_globals, ptr @executor_globals, i32 0, i32 54), align 8, !tbaa !12
  %26 = icmp ne ptr %25, null
  call void @llvm.assume(i1 %26)
  store i32 1, ptr %6, align 4
  br label %52

27:                                               ; No predecessors!
  br label %28

28:                                               ; preds = %27
  br label %29

29:                                               ; preds = %28, %20
  %30 = load ptr, ptr %3, align 8, !tbaa !4
  %31 = getelementptr inbounds nuw %struct._zend_execute_data, ptr %30, i32 0, i32 4
  %32 = getelementptr inbounds nuw %struct._zval_struct, ptr %31, i32 0, i32 0
  %33 = load ptr, ptr %32, align 8, !tbaa !11
  %34 = call ptr @spl_dllist_from_obj(ptr noundef %33)
  store ptr %34, ptr %5, align 8, !tbaa !45
  %35 = load ptr, ptr %5, align 8, !tbaa !45
  %36 = getelementptr inbounds nuw %struct._spl_dllist_object, ptr %35, i32 0, i32 0
  %37 = load ptr, ptr %36, align 8, !tbaa !47
  %38 = load ptr, ptr %4, align 8, !tbaa !9
  call void @spl_ptr_llist_pop(ptr noundef %37, ptr noundef %38)
  %39 = load ptr, ptr %4, align 8, !tbaa !9
  %40 = call zeroext i8 @zval_get_type(ptr noundef %39)
  %41 = zext i8 %40 to i32
  %42 = icmp eq i32 %41, 0
  br i1 %42, label %43, label %51

43:                                               ; preds = %29
  %44 = load ptr, ptr @spl_ce_RuntimeException, align 8, !tbaa !67
  %45 = call ptr @zend_throw_exception(ptr noundef %44, ptr noundef @.str.1, i64 noundef 0)
  br label %46

46:                                               ; preds = %43
  %47 = load ptr, ptr getelementptr inbounds nuw (%struct._zend_executor_globals, ptr @executor_globals, i32 0, i32 54), align 8, !tbaa !12
  %48 = icmp ne ptr %47, null
  call void @llvm.assume(i1 %48)
  store i32 1, ptr %6, align 4
  br label %52

49:                                               ; No predecessors!
  br label %50

50:                                               ; preds = %49
  br label %51

51:                                               ; preds = %50, %29
  store i32 0, ptr %6, align 4
  br label %52

52:                                               ; preds = %51, %46, %24
  call void @llvm.lifetime.end.p0(i64 8, ptr %5) #14
  %53 = load i32, ptr %6, align 4
  switch i32 %53, label %55 [
    i32 0, label %54
    i32 1, label %54
  ]

54:                                               ; preds = %52, %52
  ret void

55:                                               ; preds = %52
  unreachable
}